target datalayout = "e-m:e-p270:32:32-p271:32:32-p272:64:64-i64:64-i128:128-f80:128-n8:16:32:64-S128"
target triple = "x86_64-pc-linux-gnu"

@_ZN10MemTracker15_tracking_levelE = hidden global i32 0, align 4
@.str.8 = private unnamed_addr constant [15 x i8] c"Preinit state:\00", align 1

; Function Attrs: mustprogress nounwind uwtable
define linkonce_odr hidden noundef zeroext i1 @_ZN10MemTracker7enabledEv() #1 comdat align 2 {
  %1 = load i32, ptr @_ZN10MemTracker15_tracking_levelE, align 4
  %2 = icmp sgt i32 %1, 1
  ret i1 %2
}

; Function Attrs: mustprogress nounwind uwtable
define hidden void @_ZN10MemTracker12error_reportEP12outputStream(ptr noundef %0) #1 align 2 {
  %2 = alloca ptr, align 8
  store ptr %0, ptr %2, align 8
  %3 = call noundef zeroext i1 @_ZN10MemTracker7enabledEv()
  br i1 %3, label %4, label %9

4:                                                ; preds = %1
  %5 = load ptr, ptr %2, align 8
  call void @_ZN10MemTracker6reportEbP12outputStreamm(i1 noundef zeroext true, ptr noundef %5, i64 noundef 1024)
  %6 = load ptr, ptr %2, align 8
  call void (ptr, ptr, ...) @_ZN12outputStream5printEPKcz(ptr noundef nonnull align 8 dereferenceable(56) %6, ptr noundef @.str.8)
  %7 = load ptr, ptr %2, align 8
  call void @_ZN10NMTPreInit11print_stateEP12outputStream(ptr noundef %7)
  %8 = load ptr, ptr %2, align 8
  call void @_ZN18MallocLimitHandler8print_onEP12outputStream(ptr noundef %8)
  br label %9

9:                                                ; preds = %4, %1
  ret void
}