; Function Attrs: mustprogress nounwind uwtable
define hidden void @_ZN10MemTracker12error_reportEP12outputStream(ptr noundef %0) local_unnamed_addr #0 align 2 {
  %2 = load i32, ptr @_ZN10MemTracker15_tracking_levelE, align 4
  %3 = icmp sgt i32 %2, 1
  br i1 %3, label %4, label %5

4:                                                ; preds = %1
  tail call void @_ZN10MemTracker6reportEbP12outputStreamm(i1 noundef zeroext true, ptr noundef %0, i64 noundef 1024)
  tail call void (ptr, ptr, ...) @_ZN12outputStream5printEPKcz(ptr noundef nonnull align 8 dereferenceable(56) %0, ptr noundef nonnull @.str.8) #11
  tail call void @_ZN10NMTPreInit11print_stateEP12outputStream(ptr noundef nonnull %0) #11
  tail call void @_ZN18MallocLimitHandler8print_onEP12outputStream(ptr noundef nonnull %0) #11
  br label %5

5:                                                ; preds = %4, %1
  ret void
}